; Function Attrs: mustprogress uwtable
define void @_ZN4YAML5RegExC2ERKNSt7__cxx1112basic_stringIcSt11char_traitsIcESaIcEEENS_8REGEX_OPE(ptr noundef nonnull align 8 dereferenceable(32) initializes((0, 6), (8, 32)) %0, ptr noundef nonnull readonly align 8 captures(none) dereferenceable(32) %1, i32 noundef %2) unnamed_addr #2 align 2 personality ptr @__gxx_personality_v0 {
  store i32 %2, ptr %0, align 8, !tbaa !3
  %4 = getelementptr inbounds nuw i8, ptr %0, i64 4
  store i8 0, ptr %4, align 4, !tbaa !14
  %5 = getelementptr inbounds nuw i8, ptr %0, i64 5
  store i8 0, ptr %5, align 1, !tbaa !15
  %6 = getelementptr inbounds nuw i8, ptr %0, i64 8
  %7 = load ptr, ptr %1, align 8, !tbaa !16
  %8 = getelementptr inbounds nuw i8, ptr %1, i64 8
  %9 = load i64, ptr %8, align 8, !tbaa !21
  %10 = getelementptr inbounds nuw i8, ptr %7, i64 %9
  tail call void @llvm.memset.p0.i64(ptr noundef nonnull align 8 dereferenceable(24) %6, i8 0, i64 24, i1 false)
  invoke void @_ZNSt6vectorIN4YAML5RegExESaIS1_EE19_M_range_initializeIN9__gnu_cxx17__normal_iteratorIPKcNSt7__cxx1112basic_stringIcSt11char_traitsIcESaIcEEEEEEEvT_SG_St20forward_iterator_tag(ptr noundef nonnull align 8 dereferenceable(24) %6, ptr %7, ptr %10)
          to label %_ZNSt6vectorIN4YAML5RegExESaIS1_EEC2IN9__gnu_cxx17__normal_iteratorIPKcNSt7__cxx1112basic_stringIcSt11char_traitsIcESaIcEEEEEvEET_SG_RKS2_.exit unwind label %11

11:                                               ; preds = %3
  %12 = landingpad { ptr, i32 }
          cleanup
  %13 = load ptr, ptr %6, align 8, !tbaa !22
  %.not.i.i.i = icmp eq ptr %13, null
  br i1 %.not.i.i.i, label %.body, label %14

14:                                               ; preds = %11
  tail call void @_ZdlPv(ptr noundef nonnull %13) #12
  br label %.body

_ZNSt6vectorIN4YAML5RegExESaIS1_EEC2IN9__gnu_cxx17__normal_iteratorIPKcNSt7__cxx1112basic_stringIcSt11char_traitsIcESaIcEEEEEvEET_SG_RKS2_.exit: ; preds = %3
  ret void

.body:                                            ; preds = %11, %14
  resume { ptr, i32 } %12
}